; Function Attrs: nounwind uwtable
define internal i64 @ssl_cf_send(ptr noundef %0, ptr noundef %1, ptr noundef %2, i64 noundef %3, ptr noundef initializes((0, 4)) %4) #2 {
  %6 = getelementptr inbounds nuw i8, ptr %0, i64 16
  %7 = load ptr, ptr %6, align 8
  %8 = getelementptr inbounds nuw i8, ptr %7, i64 56
  %.sroa.0.0.copyload = load ptr, ptr %8, align 8
  store ptr %1, ptr %8, align 8
  store i32 0, ptr %4, align 4
  %9 = load ptr, ptr @Curl_ssl, align 8
  %10 = getelementptr inbounds nuw i8, ptr %9, i64 224
  %11 = load ptr, ptr %10, align 8
  %12 = tail call i64 %11(ptr noundef %0, ptr noundef %1, ptr noundef %2, i64 noundef %3, ptr noundef nonnull %4) #18
  %13 = load ptr, ptr %6, align 8
  %14 = getelementptr inbounds nuw i8, ptr %13, i64 56
  store ptr %.sroa.0.0.copyload, ptr %14, align 8
  ret i64 %12
}